; Function Attrs: mustprogress nounwind uwtable
define hidden void @_ZN4cvc58internal6theory11quantifiers16ExampleEvalCacheD2Ev(ptr noundef nonnull align 8 dereferenceable(144) %this) unnamed_addr #4 align 2 personality ptr @__gxx_personality_v0 {
entry:
  %d_exOutCache = getelementptr inbounds i8, ptr %this, i64 96
  %_M_parent.i.i.i.i = getelementptr inbounds i8, ptr %this, i64 112
  %0 = load ptr, ptr %_M_parent.i.i.i.i, align 8
  invoke void @_ZNSt8_Rb_treeIN4cvc58internal12NodeTemplateILb1EEESt4pairIKS3_St6vectorIS3_SaIS3_EEESt10_Select1stIS9_ESt4lessIS3_ESaIS9_EE8_M_eraseEPSt13_Rb_tree_nodeIS9_E(ptr noundef nonnull align 8 dereferenceable(48) %d_exOutCache, ptr noundef %0)
          to label %_ZNSt3mapIN4cvc58internal12NodeTemplateILb1EEESt6vectorIS3_SaIS3_EESt4lessIS3_ESaISt4pairIKS3_S6_EEED2Ev.exit unwind label %terminate.lpad.i.i

terminate.lpad.i.i:                               ; preds = %entry
  %1 = landingpad { ptr, i32 }
          catch ptr null
  %2 = extractvalue { ptr, i32 } %1, 0
  tail call void @__clang_call_terminate(ptr %2) #15
  unreachable

_ZNSt3mapIN4cvc58internal12NodeTemplateILb1EEESt6vectorIS3_SaIS3_EESt4lessIS3_ESaISt4pairIKS3_S6_EEED2Ev.exit: ; preds = %entry
  %d_trie = getelementptr inbounds i8, ptr %this, i64 48
  %_M_parent.i.i.i.i1 = getelementptr inbounds i8, ptr %this, i64 64
  %3 = load ptr, ptr %_M_parent.i.i.i.i1, align 8
  invoke void @_ZNSt8_Rb_treeIN4cvc58internal8TypeNodeESt4pairIKS2_NS1_16NodeTemplateTrieILb1EEEESt10_Select1stIS7_ESt4lessIS2_ESaIS7_EE8_M_eraseEPSt13_Rb_tree_nodeIS7_E(ptr noundef nonnull align 8 dereferenceable(48) %d_trie, ptr noundef %3)
          to label %_ZNSt3mapIN4cvc58internal8TypeNodeENS1_16NodeTemplateTrieILb1EEESt4lessIS2_ESaISt4pairIKS2_S4_EEED2Ev.exit unwind label %terminate.lpad.i.i2

terminate.lpad.i.i2:                              ; preds = %_ZNSt3mapIN4cvc58internal12NodeTemplateILb1EEESt6vectorIS3_SaIS3_EESt4lessIS3_ESaISt4pairIKS3_S6_EEED2Ev.exit
  %4 = landingpad { ptr, i32 }
          catch ptr null
  %5 = extractvalue { ptr, i32 } %4, 0
  tail call void @__clang_call_terminate(ptr %5) #15
  unreachable

_ZNSt3mapIN4cvc58internal8TypeNodeENS1_16NodeTemplateTrieILb1EEESt4lessIS2_ESaISt4pairIKS2_S4_EEED2Ev.exit: ; preds = %_ZNSt3mapIN4cvc58internal12NodeTemplateILb1EEESt6vectorIS3_SaIS3_EESt4lessIS3_ESaISt4pairIKS3_S6_EEED2Ev.exit
  %d_stn = getelementptr inbounds i8, ptr %this, i64 32
  %6 = load ptr, ptr %d_stn, align 8
  %bf.load.i.i = load i64, ptr %6, align 8
  %7 = and i64 %bf.load.i.i, 1152920405095219200
  %cmp.not.i.i = icmp eq i64 %7, 1152920405095219200
  br i1 %cmp.not.i.i, label %_ZN4cvc58internal8TypeNodeD2Ev.exit, label %if.then.i.i

if.then.i.i:                                      ; preds = %_ZNSt3mapIN4cvc58internal8TypeNodeENS1_16NodeTemplateTrieILb1EEESt4lessIS2_ESaISt4pairIKS2_S4_EEED2Ev.exit
  %bf.value.i.i = add i64 %bf.load.i.i, 1152920405095219200
  %bf.shl.i.i = and i64 %bf.value.i.i, 1152920405095219200
  %bf.clear7.i.i = and i64 %bf.load.i.i, -1152920405095219201
  %bf.set.i.i = or disjoint i64 %bf.shl.i.i, %bf.clear7.i.i
  store i64 %bf.set.i.i, ptr %6, align 8
  %cmp12.i.i = icmp eq i64 %bf.shl.i.i, 0
  br i1 %cmp12.i.i, label %if.then13.i.i, label %_ZN4cvc58internal8TypeNodeD2Ev.exit

if.then13.i.i:                                    ; preds = %if.then.i.i
  invoke void @_ZN4cvc58internal4expr9NodeValue15markForDeletionEv(ptr noundef nonnull align 8 dereferenceable(16) %6)
          to label %_ZN4cvc58internal8TypeNodeD2Ev.exit unwind label %terminate.lpad.i

terminate.lpad.i:                                 ; preds = %if.then13.i.i
  %8 = landingpad { ptr, i32 }
          catch ptr null
  %9 = extractvalue { ptr, i32 } %8, 0
  tail call void @__clang_call_terminate(ptr %9) #15
  unreachable

_ZN4cvc58internal8TypeNodeD2Ev.exit:              ; preds = %_ZNSt3mapIN4cvc58internal8TypeNodeENS1_16NodeTemplateTrieILb1EEESt4lessIS2_ESaISt4pairIKS2_S4_EEED2Ev.exit, %if.then.i.i, %if.then13.i.i
  %d_examples = getelementptr inbounds i8, ptr %this, i64 8
  tail call void @_ZNSt6vectorIS_IN4cvc58internal12NodeTemplateILb1EEESaIS3_EESaIS5_EED2Ev(ptr noundef nonnull align 8 dereferenceable(24) %d_examples) #16
  ret void
}